target datalayout = "e-m:e-p270:32:32-p271:32:32-p272:64:64-i64:64-i128:128-f80:128-n8:16:32:64-S128"
target triple = "x86_64-unknown-linux-gnu"

%"class.google::protobuf::util::MessageDifferencer::MapEntryKeyComparator" = type { %"class.google::protobuf::util::MessageDifferencer::MapKeyComparator", ptr }
%"class.google::protobuf::util::MessageDifferencer::MapKeyComparator" = type { ptr }
%"class.google::protobuf::util::MessageDifferencer" = type { ptr, %"class.google::protobuf::util::DefaultFieldComparator", i32, i32, %"class.absl::lts_20230802::flat_hash_set", %"class.google::protobuf::TextFormat::Parser::UnsetFieldsMetadata", %"class.absl::lts_20230802::flat_hash_set.31", i32, %"class.absl::lts_20230802::flat_hash_map.41", %"class.std::vector.50", %"class.absl::lts_20230802::flat_hash_map.55", %"class.google::protobuf::util::MessageDifferencer::MapEntryKeyComparator", %"class.std::vector.64", %"class.std::vector.69", %"class.absl::lts_20230802::flat_hash_set", %union.anon.71, i32, i8, i8, i8, i8, ptr, %"class.std::function", %"class.google::protobuf::util::MessageDifferencer::UnpackAnyField" }
%"class.google::protobuf::util::DefaultFieldComparator" = type { %"class.google::protobuf::util::SimpleFieldComparator" }
%"class.google::protobuf::util::SimpleFieldComparator" = type { %"class.google::protobuf::util::FieldComparator", i32, i8, i8, %"struct.google::protobuf::util::SimpleFieldComparator::Tolerance", %"class.absl::lts_20230802::flat_hash_map" }
%"class.google::protobuf::util::FieldComparator" = type { ptr }
%"struct.google::protobuf::util::SimpleFieldComparator::Tolerance" = type { double, double }
%"class.absl::lts_20230802::flat_hash_map" = type { %"class.absl::lts_20230802::container_internal::raw_hash_map" }
%"class.absl::lts_20230802::container_internal::raw_hash_map" = type { %"class.absl::lts_20230802::container_internal::raw_hash_set" }
%"class.absl::lts_20230802::container_internal::raw_hash_set" = type { %"class.absl::lts_20230802::container_internal::CompressedTuple" }
%"class.absl::lts_20230802::container_internal::CompressedTuple" = type { %"struct.absl::lts_20230802::container_internal::internal_compressed_tuple::CompressedTupleImpl" }
%"struct.absl::lts_20230802::container_internal::internal_compressed_tuple::CompressedTupleImpl" = type { %"struct.absl::lts_20230802::container_internal::internal_compressed_tuple::Storage" }
%"struct.absl::lts_20230802::container_internal::internal_compressed_tuple::Storage" = type { %"class.absl::lts_20230802::container_internal::CommonFields" }
%"class.absl::lts_20230802::container_internal::CommonFields" = type { ptr, ptr, i64, %"class.absl::lts_20230802::container_internal::CompressedTuple.4" }
%"class.absl::lts_20230802::container_internal::CompressedTuple.4" = type { %"struct.absl::lts_20230802::container_internal::internal_compressed_tuple::CompressedTupleImpl.5" }
%"struct.absl::lts_20230802::container_internal::internal_compressed_tuple::CompressedTupleImpl.5" = type { %"struct.absl::lts_20230802::container_internal::internal_compressed_tuple::Storage.6" }
%"struct.absl::lts_20230802::container_internal::internal_compressed_tuple::Storage.6" = type { i64 }
%"class.google::protobuf::TextFormat::Parser::UnsetFieldsMetadata" = type { %"class.absl::lts_20230802::flat_hash_set.21" }
%"class.absl::lts_20230802::flat_hash_set.21" = type { %"class.absl::lts_20230802::container_internal::raw_hash_set.22" }
%"class.absl::lts_20230802::container_internal::raw_hash_set.22" = type { %"class.absl::lts_20230802::container_internal::CompressedTuple.23" }
%"class.absl::lts_20230802::container_internal::CompressedTuple.23" = type { %"struct.absl::lts_20230802::container_internal::internal_compressed_tuple::CompressedTupleImpl.24" }
%"struct.absl::lts_20230802::container_internal::internal_compressed_tuple::CompressedTupleImpl.24" = type { %"struct.absl::lts_20230802::container_internal::internal_compressed_tuple::Storage" }
%"class.absl::lts_20230802::flat_hash_set.31" = type { %"class.absl::lts_20230802::container_internal::raw_hash_set.32" }
%"class.absl::lts_20230802::container_internal::raw_hash_set.32" = type { %"class.absl::lts_20230802::container_internal::CompressedTuple.33" }
%"class.absl::lts_20230802::container_internal::CompressedTuple.33" = type { %"struct.absl::lts_20230802::container_internal::internal_compressed_tuple::CompressedTupleImpl.34" }
%"struct.absl::lts_20230802::container_internal::internal_compressed_tuple::CompressedTupleImpl.34" = type { %"struct.absl::lts_20230802::container_internal::internal_compressed_tuple::Storage" }
%"class.absl::lts_20230802::flat_hash_map.41" = type { %"class.absl::lts_20230802::container_internal::raw_hash_map.42" }
%"class.absl::lts_20230802::container_internal::raw_hash_map.42" = type { %"class.absl::lts_20230802::container_internal::raw_hash_set.43" }
%"class.absl::lts_20230802::container_internal::raw_hash_set.43" = type { %"class.absl::lts_20230802::container_internal::CompressedTuple.44" }
%"class.absl::lts_20230802::container_internal::CompressedTuple.44" = type { %"struct.absl::lts_20230802::container_internal::internal_compressed_tuple::CompressedTupleImpl.45" }
%"struct.absl::lts_20230802::container_internal::internal_compressed_tuple::CompressedTupleImpl.45" = type { %"struct.absl::lts_20230802::container_internal::internal_compressed_tuple::Storage" }
%"class.std::vector.50" = type { %"struct.std::_Vector_base.51" }
%"struct.std::_Vector_base.51" = type { %"struct.std::_Vector_base<google::protobuf::util::MessageDifferencer::MapKeyComparator *, std::allocator<google::protobuf::util::MessageDifferencer::MapKeyComparator *>>::_Vector_impl" }
%"struct.std::_Vector_base<google::protobuf::util::MessageDifferencer::MapKeyComparator *, std::allocator<google::protobuf::util::MessageDifferencer::MapKeyComparator *>>::_Vector_impl" = type { %"struct.std::_Vector_base<google::protobuf::util::MessageDifferencer::MapKeyComparator *, std::allocator<google::protobuf::util::MessageDifferencer::MapKeyComparator *>>::_Vector_impl_data" }
%"struct.std::_Vector_base<google::protobuf::util::MessageDifferencer::MapKeyComparator *, std::allocator<google::protobuf::util::MessageDifferencer::MapKeyComparator *>>::_Vector_impl_data" = type { ptr, ptr, ptr }
%"class.absl::lts_20230802::flat_hash_map.55" = type { %"class.absl::lts_20230802::container_internal::raw_hash_map.56" }
%"class.absl::lts_20230802::container_internal::raw_hash_map.56" = type { %"class.absl::lts_20230802::container_internal::raw_hash_set.57" }
%"class.absl::lts_20230802::container_internal::raw_hash_set.57" = type { %"class.absl::lts_20230802::container_internal::CompressedTuple.58" }
%"class.absl::lts_20230802::container_internal::CompressedTuple.58" = type { %"struct.absl::lts_20230802::container_internal::internal_compressed_tuple::CompressedTupleImpl.59" }
%"struct.absl::lts_20230802::container_internal::internal_compressed_tuple::CompressedTupleImpl.59" = type { %"struct.absl::lts_20230802::container_internal::internal_compressed_tuple::Storage" }
%"class.std::vector.64" = type { %"struct.std::_Vector_base.65" }
%"struct.std::_Vector_base.65" = type { %"struct.std::_Vector_base<std::unique_ptr<google::protobuf::util::MessageDifferencer::IgnoreCriteria>, std::allocator<std::unique_ptr<google::protobuf::util::MessageDifferencer::IgnoreCriteria>>>::_Vector_impl" }
%"struct.std::_Vector_base<std::unique_ptr<google::protobuf::util::MessageDifferencer::IgnoreCriteria>, std::allocator<std::unique_ptr<google::protobuf::util::MessageDifferencer::IgnoreCriteria>>>::_Vector_impl" = type { %"struct.std::_Vector_base<std::unique_ptr<google::protobuf::util::MessageDifferencer::IgnoreCriteria>, std::allocator<std::unique_ptr<google::protobuf::util::MessageDifferencer::IgnoreCriteria>>>::_Vector_impl_data" }
%"struct.std::_Vector_base<std::unique_ptr<google::protobuf::util::MessageDifferencer::IgnoreCriteria>, std::allocator<std::unique_ptr<google::protobuf::util::MessageDifferencer::IgnoreCriteria>>>::_Vector_impl_data" = type { ptr, ptr, ptr }
%"class.std::vector.69" = type { %"struct.std::_Vector_base.70" }
%"struct.std::_Vector_base.70" = type { %"struct.std::_Vector_base<const google::protobuf::FieldDescriptor *, std::allocator<const google::protobuf::FieldDescriptor *>>::_Vector_impl" }
%"struct.std::_Vector_base<const google::protobuf::FieldDescriptor *, std::allocator<const google::protobuf::FieldDescriptor *>>::_Vector_impl" = type { %"struct.std::_Vector_base<const google::protobuf::FieldDescriptor *, std::allocator<const google::protobuf::FieldDescriptor *>>::_Vector_impl_data" }
%"struct.std::_Vector_base<const google::protobuf::FieldDescriptor *, std::allocator<const google::protobuf::FieldDescriptor *>>::_Vector_impl_data" = type { ptr, ptr, ptr }
%"class.absl::lts_20230802::flat_hash_set" = type { %"class.absl::lts_20230802::container_internal::raw_hash_set.14" }
%"class.absl::lts_20230802::container_internal::raw_hash_set.14" = type { %"class.absl::lts_20230802::container_internal::CompressedTuple.15" }
%"class.absl::lts_20230802::container_internal::CompressedTuple.15" = type { %"struct.absl::lts_20230802::container_internal::internal_compressed_tuple::CompressedTupleImpl.16" }
%"struct.absl::lts_20230802::container_internal::internal_compressed_tuple::CompressedTupleImpl.16" = type { %"struct.absl::lts_20230802::container_internal::internal_compressed_tuple::Storage" }
%union.anon.71 = type { ptr }
%"class.std::function" = type { %"class.std::_Function_base", ptr }
%"class.std::_Function_base" = type { %"union.std::_Any_data", ptr }
%"union.std::_Any_data" = type { %"union.std::_Nocopy_types" }
%"union.std::_Nocopy_types" = type { { i64, i64 } }
%"class.google::protobuf::util::MessageDifferencer::UnpackAnyField" = type { %"class.std::unique_ptr" }
%"class.std::unique_ptr" = type { %"struct.std::__uniq_ptr_data" }
%"struct.std::__uniq_ptr_data" = type { %"class.std::__uniq_ptr_impl" }
%"class.std::__uniq_ptr_impl" = type { %"class.std::tuple" }
%"class.std::tuple" = type { %"struct.std::_Tuple_impl" }
%"struct.std::_Tuple_impl" = type { %"struct.std::_Head_base.73" }
%"struct.std::_Head_base.73" = type { ptr }

; Function Attrs: mustprogress uwtable
define noundef zeroext i1 @_ZN6google8protobuf4util18MessageDifferencer17IsTreatedAsSubsetEPKNS0_15FieldDescriptorE(ptr noundef nonnull align 8 dereferenceable(432) %this, ptr noundef %field) #4 align 2 {
entry:
  %this.addr = alloca ptr, align 8
  %field.addr = alloca ptr, align 8
  store ptr %this, ptr %this.addr, align 8
  store ptr %field, ptr %field.addr, align 8
  %this1 = load ptr, ptr %this.addr, align 8
  %scope_ = getelementptr inbounds %"class.google::protobuf::util::MessageDifferencer", ptr %this1, i32 0, i32 3
  %0 = load i32, ptr %scope_, align 4
  %cmp = icmp eq i32 %0, 1
  br i1 %cmp, label %land.rhs, label %land.end

land.rhs:                                         ; preds = %entry
  %1 = load ptr, ptr %field.addr, align 8
  %call = call noundef zeroext i1 @_ZN6google8protobuf4util18MessageDifferencer14IsTreatedAsSetEPKNS0_15FieldDescriptorE(ptr noundef nonnull align 8 dereferenceable(432) %this1, ptr noundef %1)
  br i1 %call, label %lor.end, label %lor.rhs

lor.rhs:                                          ; preds = %land.rhs
  %2 = load ptr, ptr %field.addr, align 8
  %call2 = call noundef ptr @_ZNK6google8protobuf4util18MessageDifferencer19GetMapKeyComparatorEPKNS0_15FieldDescriptorE(ptr noundef nonnull align 8 dereferenceable(432) %this1, ptr noundef %2)
  %cmp3 = icmp ne ptr %call2, null
  br label %lor.end

lor.end:                                          ; preds = %lor.rhs, %land.rhs
  %3 = phi i1 [ true, %land.rhs ], [ %cmp3, %lor.rhs ]
  br label %land.end

land.end:                                         ; preds = %lor.end, %entry
  %4 = phi i1 [ false, %entry ], [ %3, %lor.end ]
  ret i1 %4
}