; Function Attrs: mustprogress uwtable
define noundef zeroext i1 @_ZN6google8protobuf4util18MessageDifferencer17IsTreatedAsSubsetEPKNS0_15FieldDescriptorE(ptr noundef nonnull align 8 dereferenceable(432) %this, ptr noundef %field) local_unnamed_addr #3 align 2 {
entry:
  %scope_ = getelementptr inbounds i8, ptr %this, i64 76
  %0 = load i32, ptr %scope_, align 4
  %cmp = icmp eq i32 %0, 1
  br i1 %cmp, label %land.rhs, label %land.end

land.rhs:                                         ; preds = %entry
  %call = tail call noundef zeroext i1 @_ZN6google8protobuf4util18MessageDifferencer14IsTreatedAsSetEPKNS0_15FieldDescriptorE(ptr noundef nonnull align 8 dereferenceable(432) %this, ptr noundef %field)
  br i1 %call, label %land.end, label %lor.rhs

lor.rhs:                                          ; preds = %land.rhs
  %call2 = tail call noundef ptr @_ZNK6google8protobuf4util18MessageDifferencer19GetMapKeyComparatorEPKNS0_15FieldDescriptorE(ptr noundef nonnull align 8 dereferenceable(432) %this, ptr noundef %field)
  %cmp3 = icmp ne ptr %call2, null
  br label %land.end

land.end:                                         ; preds = %land.rhs, %lor.rhs, %entry
  %1 = phi i1 [ false, %entry ], [ true, %land.rhs ], [ %cmp3, %lor.rhs ]
  ret i1 %1
}